Archive member included to satisfy reference by file (symbol)

..\..\..\libvga_api.a(API_DRAW.o)
                              ..\obj\LL.o (API_DRAW_line)
..\..\..\libvga_api.a(API_IO.o)
                              ..\obj\UI.o (API_IO_init)
..\..\..\libvga_api.a(delay.o)
                              ..\..\..\libvga_api.a(API_IO.o) (DELAY_init)
..\..\..\libvga_api.a(uart.o)
                              ..\..\..\libvga_api.a(API_IO.o) (string)
..\..\..\libvga_api.a(printf.o)
                              ..\..\..\libvga_api.a(uart.o) (vsnprintf)
c:/program files (x86)/gnu tools arm embedded/5.4 2016q2/bin/../lib/gcc/arm-none-eabi/5.4.1/armv7e-m\libgcc.a(_arm_addsubdf3.o)
                              ..\..\..\libvga_api.a(delay.o) (__aeabi_ui2d)
c:/program files (x86)/gnu tools arm embedded/5.4 2016q2/bin/../lib/gcc/arm-none-eabi/5.4.1/armv7e-m\libgcc.a(_arm_muldivdf3.o)
                              ..\..\..\libvga_api.a(delay.o) (__aeabi_dmul)
c:/program files (x86)/gnu tools arm embedded/5.4 2016q2/bin/../lib/gcc/arm-none-eabi/5.4.1/armv7e-m\libgcc.a(_arm_fixunsdfsi.o)
                              ..\..\..\libvga_api.a(delay.o) (__aeabi_d2uiz)
c:/program files (x86)/gnu tools arm embedded/5.4 2016q2/bin/../lib/gcc/arm-none-eabi/5.4.1/armv7e-m\libgcc.a(_arm_addsubsf3.o)
                              ..\..\..\libvga_api.a(API_IO.o) (__aeabi_fadd)
c:/program files (x86)/gnu tools arm embedded/5.4 2016q2/bin/../lib/gcc/arm-none-eabi/5.4.1/armv7e-m\libgcc.a(_arm_muldivsf3.o)
                              ..\..\..\libvga_api.a(API_IO.o) (__aeabi_fmul)
c:/program files (x86)/gnu tools arm embedded/5.4 2016q2/bin/../lib/gcc/arm-none-eabi/5.4.1/armv7e-m\libgcc.a(_arm_cmpsf2.o)
                              ..\..\..\libvga_api.a(API_IO.o) (__aeabi_fcmple)
c:/program files (x86)/gnu tools arm embedded/5.4 2016q2/bin/../lib/gcc/arm-none-eabi/5.4.1/armv7e-m\libgcc.a(_arm_fixsfsi.o)
                              ..\..\..\libvga_api.a(API_IO.o) (__aeabi_f2iz)
c:/program files (x86)/gnu tools arm embedded/5.4 2016q2/bin/../lib/gcc/arm-none-eabi/5.4.1/../../../../arm-none-eabi/lib/armv7e-m\libg.a(lib_a-atoi.o)
                              ..\obj\LL.o (atoi)
c:/program files (x86)/gnu tools arm embedded/5.4 2016q2/bin/../lib/gcc/arm-none-eabi/5.4.1/../../../../arm-none-eabi/lib/armv7e-m\libg.a(lib_a-ctype_.o)
                              ..\obj\LL.o (__ctype_ptr__)
c:/program files (x86)/gnu tools arm embedded/5.4 2016q2/bin/../lib/gcc/arm-none-eabi/5.4.1/../../../../arm-none-eabi/lib/armv7e-m\libg.a(lib_a-strcpy.o)
                              ..\..\..\libvga_api.a(API_IO.o) (strcpy)
c:/program files (x86)/gnu tools arm embedded/5.4 2016q2/bin/../lib/gcc/arm-none-eabi/5.4.1/../../../../arm-none-eabi/lib/armv7e-m\libg.a(lib_a-strlen.o)
                              ..\obj\LL.o (strlen)
c:/program files (x86)/gnu tools arm embedded/5.4 2016q2/bin/../lib/gcc/arm-none-eabi/5.4.1/../../../../arm-none-eabi/lib/armv7e-m\libg.a(lib_a-strncmp.o)
                              ..\obj\LL.o (strncmp)
c:/program files (x86)/gnu tools arm embedded/5.4 2016q2/bin/../lib/gcc/arm-none-eabi/5.4.1/../../../../arm-none-eabi/lib/armv7e-m\libg.a(lib_a-strtol.o)
                              c:/program files (x86)/gnu tools arm embedded/5.4 2016q2/bin/../lib/gcc/arm-none-eabi/5.4.1/../../../../arm-none-eabi/lib/armv7e-m\libg.a(lib_a-atoi.o) (_strtol_r)

Allocating common symbols
Common symbol       size              file

G_CLK               0x4               ..\..\..\libvga_api.a(delay.o)
D_S                 0x4               ..\..\..\libvga_api.a(delay.o)
D_uS                0x4               ..\..\..\libvga_api.a(delay.o)
string              0x64              ..\..\..\libvga_api.a(uart.o)
VGA                 0xc               ..\obj\stm32_ub_vga_screen.o
VGA_RAM1            0x12cf0           ..\obj\stm32_ub_vga_screen.o
D_mS                0x4               ..\..\..\libvga_api.a(delay.o)

Discarded input sections

 .text          0x00000000        0x0 ..\obj\UI.o
 .data          0x00000000        0x0 ..\obj\UI.o
 .bss           0x00000000        0x0 ..\obj\UI.o
 .text          0x00000000        0x0 ..\obj\stm32f4xx_usart.o
 .data          0x00000000        0x0 ..\obj\stm32f4xx_usart.o
 .bss           0x00000000        0x0 ..\obj\stm32f4xx_usart.o
 .text.USART_DeInit
                0x00000000       0xd4 ..\obj\stm32f4xx_usart.o
 .text.USART_StructInit
                0x00000000       0x38 ..\obj\stm32f4xx_usart.o
 .text.USART_ClockInit
                0x00000000       0x54 ..\obj\stm32f4xx_usart.o
 .text.USART_ClockStructInit
                0x00000000       0x2c ..\obj\stm32f4xx_usart.o
 .text.USART_SetPrescaler
                0x00000000       0x38 ..\obj\stm32f4xx_usart.o
 .text.USART_OverSampling8Cmd
                0x00000000       0x44 ..\obj\stm32f4xx_usart.o
 .text.USART_OneBitMethodCmd
                0x00000000       0x40 ..\obj\stm32f4xx_usart.o
 .text.USART_ReceiveData
                0x00000000       0x20 ..\obj\stm32f4xx_usart.o
 .text.USART_SetAddress
                0x00000000       0x38 ..\obj\stm32f4xx_usart.o
 .text.USART_ReceiverWakeUpCmd
                0x00000000       0x40 ..\obj\stm32f4xx_usart.o
 .text.USART_WakeUpConfig
                0x00000000       0x38 ..\obj\stm32f4xx_usart.o
 .text.USART_LINBreakDetectLengthConfig
                0x00000000       0x38 ..\obj\stm32f4xx_usart.o
 .text.USART_LINCmd
                0x00000000       0x40 ..\obj\stm32f4xx_usart.o
 .text.USART_SendBreak
                0x00000000       0x24 ..\obj\stm32f4xx_usart.o
 .text.USART_HalfDuplexCmd
                0x00000000       0x40 ..\obj\stm32f4xx_usart.o
 .text.USART_SetGuardTime
                0x00000000       0x3c ..\obj\stm32f4xx_usart.o
 .text.USART_SmartCardCmd
                0x00000000       0x40 ..\obj\stm32f4xx_usart.o
 .text.USART_SmartCardNACKCmd
                0x00000000       0x40 ..\obj\stm32f4xx_usart.o
 .text.USART_IrDAConfig
                0x00000000       0x38 ..\obj\stm32f4xx_usart.o
 .text.USART_IrDACmd
                0x00000000       0x40 ..\obj\stm32f4xx_usart.o
 .text.USART_DMACmd
                0x00000000       0x48 ..\obj\stm32f4xx_usart.o
 .text.USART_ClearFlag
                0x00000000       0x20 ..\obj\stm32f4xx_usart.o
 .text          0x00000000        0x0 ..\obj\startup_stm32f4xx.o
 .data          0x00000000        0x0 ..\obj\startup_stm32f4xx.o
 .bss           0x00000000        0x0 ..\obj\startup_stm32f4xx.o
 .text          0x00000000        0x0 ..\obj\LL.o
 .data          0x00000000        0x0 ..\obj\LL.o
 .bss           0x00000000        0x0 ..\obj\LL.o
 .text.LL_STRING_isallnum
                0x00000000       0x2c ..\obj\LL.o
 .text          0x00000000        0x0 ..\obj\stm32f4xx_rcc.o
 .bss           0x00000000        0x0 ..\obj\stm32f4xx_rcc.o
 .text.RCC_DeInit
                0x00000000       0x50 ..\obj\stm32f4xx_rcc.o
 .text.RCC_HSEConfig
                0x00000000       0x24 ..\obj\stm32f4xx_rcc.o
 .text.RCC_WaitForHSEStartUp
                0x00000000       0x50 ..\obj\stm32f4xx_rcc.o
 .text.RCC_AdjustHSICalibrationValue
                0x00000000       0x3c ..\obj\stm32f4xx_rcc.o
 .text.RCC_HSICmd
                0x00000000       0x20 ..\obj\stm32f4xx_rcc.o
 .text.RCC_LSEConfig
                0x00000000       0x40 ..\obj\stm32f4xx_rcc.o
 .text.RCC_LSICmd
                0x00000000       0x20 ..\obj\stm32f4xx_rcc.o
 .text.RCC_PLLConfig
                0x00000000       0x3c ..\obj\stm32f4xx_rcc.o
 .text.RCC_PLLCmd
                0x00000000       0x20 ..\obj\stm32f4xx_rcc.o
 .text.RCC_PLLI2SConfig
                0x00000000       0x28 ..\obj\stm32f4xx_rcc.o
 .text.RCC_PLLI2SCmd
                0x00000000       0x20 ..\obj\stm32f4xx_rcc.o
 .text.RCC_ClockSecuritySystemCmd
                0x00000000       0x20 ..\obj\stm32f4xx_rcc.o
 .text.RCC_MCO1Config
                0x00000000       0x3c ..\obj\stm32f4xx_rcc.o
 .text.RCC_MCO2Config
                0x00000000       0x3c ..\obj\stm32f4xx_rcc.o
 .text.RCC_SYSCLKConfig
                0x00000000       0x38 ..\obj\stm32f4xx_rcc.o
 .text.RCC_GetSYSCLKSource
                0x00000000       0x1c ..\obj\stm32f4xx_rcc.o
 .text.RCC_HCLKConfig
                0x00000000       0x38 ..\obj\stm32f4xx_rcc.o
 .text.RCC_PCLK1Config
                0x00000000       0x38 ..\obj\stm32f4xx_rcc.o
 .text.RCC_PCLK2Config
                0x00000000       0x38 ..\obj\stm32f4xx_rcc.o
 .text.RCC_RTCCLKConfig
                0x00000000       0x5c ..\obj\stm32f4xx_rcc.o
 .text.RCC_RTCCLKCmd
                0x00000000       0x20 ..\obj\stm32f4xx_rcc.o
 .text.RCC_BackupResetCmd
                0x00000000       0x20 ..\obj\stm32f4xx_rcc.o
 .text.RCC_I2SCLKConfig
                0x00000000       0x1c ..\obj\stm32f4xx_rcc.o
 .text.RCC_AHB2PeriphClockCmd
                0x00000000       0x3c ..\obj\stm32f4xx_rcc.o
 .text.RCC_AHB3PeriphClockCmd
                0x00000000       0x3c ..\obj\stm32f4xx_rcc.o
 .text.RCC_AHB1PeriphResetCmd
                0x00000000       0x3c ..\obj\stm32f4xx_rcc.o
 .text.RCC_AHB2PeriphResetCmd
                0x00000000       0x3c ..\obj\stm32f4xx_rcc.o
 .text.RCC_AHB3PeriphResetCmd
                0x00000000       0x3c ..\obj\stm32f4xx_rcc.o
 .text.RCC_APB1PeriphResetCmd
                0x00000000       0x3c ..\obj\stm32f4xx_rcc.o
 .text.RCC_APB2PeriphResetCmd
                0x00000000       0x3c ..\obj\stm32f4xx_rcc.o
 .text.RCC_AHB1PeriphClockLPModeCmd
                0x00000000       0x3c ..\obj\stm32f4xx_rcc.o
 .text.RCC_AHB2PeriphClockLPModeCmd
                0x00000000       0x3c ..\obj\stm32f4xx_rcc.o
 .text.RCC_AHB3PeriphClockLPModeCmd
                0x00000000       0x3c ..\obj\stm32f4xx_rcc.o
 .text.RCC_APB1PeriphClockLPModeCmd
                0x00000000       0x3c ..\obj\stm32f4xx_rcc.o
 .text.RCC_APB2PeriphClockLPModeCmd
                0x00000000       0x3c ..\obj\stm32f4xx_rcc.o
 .text.RCC_ITConfig
                0x00000000       0x4c ..\obj\stm32f4xx_rcc.o
 .text.RCC_GetFlagStatus
                0x00000000       0x74 ..\obj\stm32f4xx_rcc.o
 .text.RCC_ClearFlag
                0x00000000       0x1c ..\obj\stm32f4xx_rcc.o
 .text.RCC_GetITStatus
                0x00000000       0x34 ..\obj\stm32f4xx_rcc.o
 .text.RCC_ClearITPendingBit
                0x00000000       0x20 ..\obj\stm32f4xx_rcc.o
 .text          0x00000000        0x0 ..\obj\stm32f4xx_gpio.o
 .data          0x00000000        0x0 ..\obj\stm32f4xx_gpio.o
 .bss           0x00000000        0x0 ..\obj\stm32f4xx_gpio.o
 .text.GPIO_DeInit
                0x00000000      0x120 ..\obj\stm32f4xx_gpio.o
 .text.GPIO_StructInit
                0x00000000       0x34 ..\obj\stm32f4xx_gpio.o
 .text.GPIO_PinLockConfig
                0x00000000       0x44 ..\obj\stm32f4xx_gpio.o
 .text.GPIO_ReadInputDataBit
                0x00000000       0x34 ..\obj\stm32f4xx_gpio.o
 .text.GPIO_ReadInputData
                0x00000000       0x18 ..\obj\stm32f4xx_gpio.o
 .text.GPIO_ReadOutputDataBit
                0x00000000       0x34 ..\obj\stm32f4xx_gpio.o
 .text.GPIO_ReadOutputData
                0x00000000       0x18 ..\obj\stm32f4xx_gpio.o
 .text.GPIO_SetBits
                0x00000000       0x1c ..\obj\stm32f4xx_gpio.o
 .text.GPIO_ResetBits
                0x00000000       0x1c ..\obj\stm32f4xx_gpio.o
 .text.GPIO_WriteBit
                0x00000000       0x30 ..\obj\stm32f4xx_gpio.o
 .text.GPIO_Write
                0x00000000       0x1c ..\obj\stm32f4xx_gpio.o
 .text.GPIO_ToggleBits
                0x00000000       0x24 ..\obj\stm32f4xx_gpio.o
 .text          0x00000000        0x0 ..\obj\system_stm32f4xx.o
 .data          0x00000000       0x14 ..\obj\system_stm32f4xx.o
 .bss           0x00000000        0x0 ..\obj\system_stm32f4xx.o
 .text.SystemCoreClockUpdate
                0x00000000       0xf8 ..\obj\system_stm32f4xx.o
 .text          0x00000000        0x0 ..\obj\syscalls.o
 .data          0x00000000        0x0 ..\obj\syscalls.o
 .bss           0x00000000        0x4 ..\obj\syscalls.o
 .text._sbrk    0x00000000       0x3c ..\obj\syscalls.o
 .text.link     0x00000000       0x18 ..\obj\syscalls.o
 .text._close   0x00000000       0x18 ..\obj\syscalls.o
 .text._fstat   0x00000000       0x20 ..\obj\syscalls.o
 .text._isatty  0x00000000       0x14 ..\obj\syscalls.o
 .text._lseek   0x00000000       0x18 ..\obj\syscalls.o
 .text._read    0x00000000       0x18 ..\obj\syscalls.o
 .text._write   0x00000000       0x18 ..\obj\syscalls.o
 .text.abort    0x00000000        0x8 ..\obj\syscalls.o
 .debug_info    0x00000000      0x458 ..\obj\syscalls.o
 .debug_abbrev  0x00000000       0xe5 ..\obj\syscalls.o
 .debug_aranges
                0x00000000       0x60 ..\obj\syscalls.o
 .debug_ranges  0x00000000       0x50 ..\obj\syscalls.o
 .debug_line    0x00000000      0x221 ..\obj\syscalls.o
 .debug_str     0x00000000      0x397 ..\obj\syscalls.o
 .comment       0x00000000       0x6f ..\obj\syscalls.o
 .debug_frame   0x00000000      0x168 ..\obj\syscalls.o
 .ARM.attributes
                0x00000000       0x33 ..\obj\syscalls.o
 .text          0x00000000        0x0 ..\obj\stm32f4xx_dma.o
 .data          0x00000000        0x0 ..\obj\stm32f4xx_dma.o
 .bss           0x00000000        0x0 ..\obj\stm32f4xx_dma.o
 .text.DMA_StructInit
                0x00000000       0x6c ..\obj\stm32f4xx_dma.o
 .text.DMA_PeriphIncOffsetSizeConfig
                0x00000000       0x34 ..\obj\stm32f4xx_dma.o
 .text.DMA_FlowControllerConfig
                0x00000000       0x34 ..\obj\stm32f4xx_dma.o
 .text.DMA_SetCurrDataCounter
                0x00000000       0x1c ..\obj\stm32f4xx_dma.o
 .text.DMA_GetCurrDataCounter
                0x00000000       0x18 ..\obj\stm32f4xx_dma.o
 .text.DMA_DoubleBufferModeConfig
                0x00000000       0x3c ..\obj\stm32f4xx_dma.o
 .text.DMA_DoubleBufferModeCmd
                0x00000000       0x38 ..\obj\stm32f4xx_dma.o
 .text.DMA_MemoryTargetConfig
                0x00000000       0x2c ..\obj\stm32f4xx_dma.o
 .text.DMA_GetCurrentMemoryTarget
                0x00000000       0x30 ..\obj\stm32f4xx_dma.o
 .text.DMA_GetCmdStatus
                0x00000000       0x30 ..\obj\stm32f4xx_dma.o
 .text.DMA_GetFIFOStatus
                0x00000000       0x24 ..\obj\stm32f4xx_dma.o
 .text.DMA_GetFlagStatus
                0x00000000       0x74 ..\obj\stm32f4xx_dma.o
 .text.DMA_ClearFlag
                0x00000000       0x5c ..\obj\stm32f4xx_dma.o
 .text          0x00000000        0x0 ..\obj\stm32_ub_vga_screen.o
 .data          0x00000000        0x0 ..\obj\stm32_ub_vga_screen.o
 .bss           0x00000000        0x0 ..\obj\stm32_ub_vga_screen.o
 .text          0x00000000        0x0 ..\obj\misc.o
 .data          0x00000000        0x0 ..\obj\misc.o
 .bss           0x00000000        0x0 ..\obj\misc.o
 .text.NVIC_PriorityGroupConfig
                0x00000000       0x24 ..\obj\misc.o
 .text.NVIC_SetVectorTable
                0x00000000       0x2c ..\obj\misc.o
 .text.NVIC_SystemLPConfig
                0x00000000       0x40 ..\obj\misc.o
 .text.SysTick_CLKSourceConfig
                0x00000000       0x38 ..\obj\misc.o
 .text          0x00000000        0x0 ..\obj\stm32f4xx_tim.o
 .data          0x00000000        0x0 ..\obj\stm32f4xx_tim.o
 .bss           0x00000000        0x0 ..\obj\stm32f4xx_tim.o
 .text.TIM_DeInit
                0x00000000      0x1c0 ..\obj\stm32f4xx_tim.o
 .text.TIM_TimeBaseStructInit
                0x00000000       0x34 ..\obj\stm32f4xx_tim.o
 .text.TIM_PrescalerConfig
                0x00000000       0x28 ..\obj\stm32f4xx_tim.o
 .text.TIM_CounterModeConfig
                0x00000000       0x38 ..\obj\stm32f4xx_tim.o
 .text.TIM_SetCounter
                0x00000000       0x1c ..\obj\stm32f4xx_tim.o
 .text.TIM_SetAutoreload
                0x00000000       0x1c ..\obj\stm32f4xx_tim.o
 .text.TIM_GetCounter
                0x00000000       0x18 ..\obj\stm32f4xx_tim.o
 .text.TIM_GetPrescaler
                0x00000000       0x18 ..\obj\stm32f4xx_tim.o
 .text.TIM_UpdateDisableConfig
                0x00000000       0x40 ..\obj\stm32f4xx_tim.o
 .text.TIM_UpdateRequestConfig
                0x00000000       0x40 ..\obj\stm32f4xx_tim.o
 .text.TIM_SelectOnePulseMode
                0x00000000       0x38 ..\obj\stm32f4xx_tim.o
 .text.TIM_SetClockDivision
                0x00000000       0x38 ..\obj\stm32f4xx_tim.o
 .text.TIM_OC1Init
                0x00000000       0xf4 ..\obj\stm32f4xx_tim.o
 .text.TIM_OC2Init
                0x00000000      0x110 ..\obj\stm32f4xx_tim.o
 .text.TIM_OCStructInit
                0x00000000       0x44 ..\obj\stm32f4xx_tim.o
 .text.TIM_SelectOCxM
                0x00000000       0xb0 ..\obj\stm32f4xx_tim.o
 .text.TIM_SetCompare1
                0x00000000       0x1c ..\obj\stm32f4xx_tim.o
 .text.TIM_SetCompare2
                0x00000000       0x1c ..\obj\stm32f4xx_tim.o
 .text.TIM_SetCompare3
                0x00000000       0x1c ..\obj\stm32f4xx_tim.o
 .text.TIM_SetCompare4
                0x00000000       0x1c ..\obj\stm32f4xx_tim.o
 .text.TIM_ForcedOC1Config
                0x00000000       0x38 ..\obj\stm32f4xx_tim.o
 .text.TIM_ForcedOC2Config
                0x00000000       0x3c ..\obj\stm32f4xx_tim.o
 .text.TIM_ForcedOC3Config
                0x00000000       0x38 ..\obj\stm32f4xx_tim.o
 .text.TIM_ForcedOC4Config
                0x00000000       0x3c ..\obj\stm32f4xx_tim.o
 .text.TIM_OC1PreloadConfig
                0x00000000       0x38 ..\obj\stm32f4xx_tim.o
 .text.TIM_OC2PreloadConfig
                0x00000000       0x3c ..\obj\stm32f4xx_tim.o
 .text.TIM_OC1FastConfig
                0x00000000       0x38 ..\obj\stm32f4xx_tim.o
 .text.TIM_OC2FastConfig
                0x00000000       0x3c ..\obj\stm32f4xx_tim.o
 .text.TIM_OC3FastConfig
                0x00000000       0x38 ..\obj\stm32f4xx_tim.o
 .text.TIM_OC4FastConfig
                0x00000000       0x3c ..\obj\stm32f4xx_tim.o
 .text.TIM_ClearOC1Ref
                0x00000000       0x38 ..\obj\stm32f4xx_tim.o
 .text.TIM_ClearOC2Ref
                0x00000000       0x3c ..\obj\stm32f4xx_tim.o
 .text.TIM_ClearOC3Ref
                0x00000000       0x38 ..\obj\stm32f4xx_tim.o
 .text.TIM_ClearOC4Ref
                0x00000000       0x3c ..\obj\stm32f4xx_tim.o
 .text.TIM_OC1PolarityConfig
                0x00000000       0x38 ..\obj\stm32f4xx_tim.o
 .text.TIM_OC1NPolarityConfig
                0x00000000       0x38 ..\obj\stm32f4xx_tim.o
 .text.TIM_OC2PolarityConfig
                0x00000000       0x3c ..\obj\stm32f4xx_tim.o
 .text.TIM_OC2NPolarityConfig
                0x00000000       0x3c ..\obj\stm32f4xx_tim.o
 .text.TIM_OC3PolarityConfig
                0x00000000       0x3c ..\obj\stm32f4xx_tim.o
 .text.TIM_OC3NPolarityConfig
                0x00000000       0x3c ..\obj\stm32f4xx_tim.o
 .text.TIM_OC4PolarityConfig
                0x00000000       0x3c ..\obj\stm32f4xx_tim.o
 .text.TIM_CCxCmd
                0x00000000       0x58 ..\obj\stm32f4xx_tim.o
 .text.TIM_CCxNCmd
                0x00000000       0x58 ..\obj\stm32f4xx_tim.o
 .text.TIM_ICInit
                0x00000000       0xa8 ..\obj\stm32f4xx_tim.o
 .text.TIM_ICStructInit
                0x00000000       0x30 ..\obj\stm32f4xx_tim.o
 .text.TIM_PWMIConfig
                0x00000000       0xb8 ..\obj\stm32f4xx_tim.o
 .text.TIM_GetCapture1
                0x00000000       0x18 ..\obj\stm32f4xx_tim.o
 .text.TIM_GetCapture2
                0x00000000       0x18 ..\obj\stm32f4xx_tim.o
 .text.TIM_GetCapture3
                0x00000000       0x18 ..\obj\stm32f4xx_tim.o
 .text.TIM_GetCapture4
                0x00000000       0x18 ..\obj\stm32f4xx_tim.o
 .text.TIM_SetIC1Prescaler
                0x00000000       0x38 ..\obj\stm32f4xx_tim.o
 .text.TIM_SetIC2Prescaler
                0x00000000       0x3c ..\obj\stm32f4xx_tim.o
 .text.TIM_SetIC3Prescaler
                0x00000000       0x38 ..\obj\stm32f4xx_tim.o
 .text.TIM_SetIC4Prescaler
                0x00000000       0x3c ..\obj\stm32f4xx_tim.o
 .text.TIM_BDTRConfig
                0x00000000       0x50 ..\obj\stm32f4xx_tim.o
 .text.TIM_BDTRStructInit
                0x00000000       0x3c ..\obj\stm32f4xx_tim.o
 .text.TIM_CtrlPWMOutputs
                0x00000000       0x4c ..\obj\stm32f4xx_tim.o
 .text.TIM_SelectCOM
                0x00000000       0x40 ..\obj\stm32f4xx_tim.o
 .text.TIM_CCPreloadControl
                0x00000000       0x40 ..\obj\stm32f4xx_tim.o
 .text.TIM_GenerateEvent
                0x00000000       0x1c ..\obj\stm32f4xx_tim.o
 .text.TIM_GetFlagStatus
                0x00000000       0x38 ..\obj\stm32f4xx_tim.o
 .text.TIM_ClearFlag
                0x00000000       0x20 ..\obj\stm32f4xx_tim.o
 .text.TIM_GetITStatus
                0x00000000       0x54 ..\obj\stm32f4xx_tim.o
 .text.TIM_DMAConfig
                0x00000000       0x28 ..\obj\stm32f4xx_tim.o
 .text.TIM_SelectCCDMA
                0x00000000       0x40 ..\obj\stm32f4xx_tim.o
 .text.TIM_InternalClockConfig
                0x00000000       0x24 ..\obj\stm32f4xx_tim.o
 .text.TIM_ITRxExternalClockConfig
                0x00000000       0x30 ..\obj\stm32f4xx_tim.o
 .text.TIM_TIxExternalClockConfig
                0x00000000       0x5c ..\obj\stm32f4xx_tim.o
 .text.TIM_ETRClockMode1Config
                0x00000000       0x60 ..\obj\stm32f4xx_tim.o
 .text.TIM_ETRClockMode2Config
                0x00000000       0x40 ..\obj\stm32f4xx_tim.o
 .text.TIM_SelectInputTrigger
                0x00000000       0x38 ..\obj\stm32f4xx_tim.o
 .text.TIM_SelectOutputTrigger
                0x00000000       0x38 ..\obj\stm32f4xx_tim.o
 .text.TIM_SelectSlaveMode
                0x00000000       0x38 ..\obj\stm32f4xx_tim.o
 .text.TIM_SelectMasterSlaveMode
                0x00000000       0x38 ..\obj\stm32f4xx_tim.o
 .text.TIM_ETRConfig
                0x00000000       0x54 ..\obj\stm32f4xx_tim.o
 .text.TIM_EncoderInterfaceConfig
                0x00000000       0x98 ..\obj\stm32f4xx_tim.o
 .text.TIM_SelectHallSensor
                0x00000000       0x40 ..\obj\stm32f4xx_tim.o
 .text.TIM_RemapConfig
                0x00000000       0x20 ..\obj\stm32f4xx_tim.o
 .text.TI1_Config
                0x00000000       0x84 ..\obj\stm32f4xx_tim.o
 .text.TI2_Config
                0x00000000       0x98 ..\obj\stm32f4xx_tim.o
 .text.TI3_Config
                0x00000000       0x90 ..\obj\stm32f4xx_tim.o
 .text.TI4_Config
                0x00000000       0x9c ..\obj\stm32f4xx_tim.o
 .text          0x00000000        0x0 ..\..\..\libvga_api.a(API_DRAW.o)
 .bss           0x00000000        0x0 ..\..\..\libvga_api.a(API_DRAW.o)
 .text.API_DRAW_text
                0x00000000       0x6c ..\..\..\libvga_api.a(API_DRAW.o)
 .text          0x00000000        0x0 ..\..\..\libvga_api.a(API_IO.o)
 .data          0x00000000        0x0 ..\..\..\libvga_api.a(API_IO.o)
 .bss           0x00000000        0x0 ..\..\..\libvga_api.a(API_IO.o)
 .rodata        0x00000000     0x1028 ..\..\..\libvga_api.a(API_IO.o)
 .text.API_IO_DELAY_us
                0x00000000       0x18 ..\..\..\libvga_api.a(API_IO.o)
 .text.API_IO_DELAY_s
                0x00000000       0x18 ..\..\..\libvga_api.a(API_IO.o)
 .text.API_IO_UART_get
                0x00000000       0x10 ..\..\..\libvga_api.a(API_IO.o)
 .text.API_IO_UART_gets
                0x00000000       0x18 ..\..\..\libvga_api.a(API_IO.o)
 .text.API_IO_UART_putchar
                0x00000000       0x1c ..\..\..\libvga_api.a(API_IO.o)
 .text.API_IO_putc
                0x00000000      0x10c ..\..\..\libvga_api.a(API_IO.o)
 .text          0x00000000        0x0 ..\..\..\libvga_api.a(delay.o)
 .data          0x00000000        0x0 ..\..\..\libvga_api.a(delay.o)
 .bss           0x00000000        0x0 ..\..\..\libvga_api.a(delay.o)
 .text.DELAY_us
                0x00000000       0x3c ..\..\..\libvga_api.a(delay.o)
 .text.DELAY_s  0x00000000       0x3c ..\..\..\libvga_api.a(delay.o)
 .text          0x00000000        0x0 ..\..\..\libvga_api.a(uart.o)
 .text.UART_printf
                0x00000000       0xbc ..\..\..\libvga_api.a(uart.o)
 .text.UART_get
                0x00000000       0x30 ..\..\..\libvga_api.a(uart.o)
 .text.UART_gets
                0x00000000       0x74 ..\..\..\libvga_api.a(uart.o)
 .text          0x00000000        0x0 ..\..\..\libvga_api.a(printf.o)
 .bss           0x00000000        0x0 ..\..\..\libvga_api.a(printf.o)
 .text.PrintChar
                0x00000000       0x14 ..\..\..\libvga_api.a(printf.o)
 .text.PutChar  0x00000000       0x20 ..\..\..\libvga_api.a(printf.o)
 .text.PutString
                0x00000000       0x3c ..\..\..\libvga_api.a(printf.o)
 .text.PutUnsignedInt
                0x00000000       0x9c ..\..\..\libvga_api.a(printf.o)
 .text.PutSignedInt
                0x00000000       0xf8 ..\..\..\libvga_api.a(printf.o)
 .text.PutHexa  0x00000000       0xd4 ..\..\..\libvga_api.a(printf.o)
 .text.vsnprintf
                0x00000000      0x254 ..\..\..\libvga_api.a(printf.o)
 .text.snprintf
                0x00000000       0x30 ..\..\..\libvga_api.a(printf.o)
 .text.vsprintf
                0x00000000       0x24 ..\..\..\libvga_api.a(printf.o)
 .rodata        0x00000000       0x24 ..\..\..\libvga_api.a(printf.o)
 .text.vfprintf
                0x00000000       0x68 ..\..\..\libvga_api.a(printf.o)
 .text.vprintf  0x00000000       0x28 ..\..\..\libvga_api.a(printf.o)
 .text.fprintf  0x00000000       0x2c ..\..\..\libvga_api.a(printf.o)
 .text.printf   0x00000000       0x28 ..\..\..\libvga_api.a(printf.o)
 .text.sprintf  0x00000000       0x2c ..\..\..\libvga_api.a(printf.o)
 .text.puts     0x00000000       0x24 ..\..\..\libvga_api.a(printf.o)
 .text.fputc    0x00000000       0x40 ..\..\..\libvga_api.a(printf.o)
 .text.fputs    0x00000000       0x48 ..\..\..\libvga_api.a(printf.o)
 .data          0x00000000        0x0 c:/program files (x86)/gnu tools arm embedded/5.4 2016q2/bin/../lib/gcc/arm-none-eabi/5.4.1/armv7e-m\libgcc.a(_arm_addsubdf3.o)
 .bss           0x00000000        0x0 c:/program files (x86)/gnu tools arm embedded/5.4 2016q2/bin/../lib/gcc/arm-none-eabi/5.4.1/armv7e-m\libgcc.a(_arm_addsubdf3.o)
 .data          0x00000000        0x0 c:/program files (x86)/gnu tools arm embedded/5.4 2016q2/bin/../lib/gcc/arm-none-eabi/5.4.1/armv7e-m\libgcc.a(_arm_muldivdf3.o)
 .bss           0x00000000        0x0 c:/program files (x86)/gnu tools arm embedded/5.4 2016q2/bin/../lib/gcc/arm-none-eabi/5.4.1/armv7e-m\libgcc.a(_arm_muldivdf3.o)
 .data          0x00000000        0x0 c:/program files (x86)/gnu tools arm embedded/5.4 2016q2/bin/../lib/gcc/arm-none-eabi/5.4.1/armv7e-m\libgcc.a(_arm_fixunsdfsi.o)
 .bss           0x00000000        0x0 c:/program files (x86)/gnu tools arm embedded/5.4 2016q2/bin/../lib/gcc/arm-none-eabi/5.4.1/armv7e-m\libgcc.a(_arm_fixunsdfsi.o)
 .data          0x00000000        0x0 c:/program files (x86)/gnu tools arm embedded/5.4 2016q2/bin/../lib/gcc/arm-none-eabi/5.4.1/armv7e-m\libgcc.a(_arm_addsubsf3.o)
 .bss           0x00000000        0x0 c:/program files (x86)/gnu tools arm embedded/5.4 2016q2/bin/../lib/gcc/arm-none-eabi/5.4.1/armv7e-m\libgcc.a(_arm_addsubsf3.o)
 .data          0x00000000        0x0 c:/program files (x86)/gnu tools arm embedded/5.4 2016q2/bin/../lib/gcc/arm-none-eabi/5.4.1/armv7e-m\libgcc.a(_arm_muldivsf3.o)
 .bss           0x00000000        0x0 c:/program files (x86)/gnu tools arm embedded/5.4 2016q2/bin/../lib/gcc/arm-none-eabi/5.4.1/armv7e-m\libgcc.a(_arm_muldivsf3.o)
 .data          0x00000000        0x0 c:/program files (x86)/gnu tools arm embedded/5.4 2016q2/bin/../lib/gcc/arm-none-eabi/5.4.1/armv7e-m\libgcc.a(_arm_cmpsf2.o)
 .bss           0x00000000        0x0 c:/program files (x86)/gnu tools arm embedded/5.4 2016q2/bin/../lib/gcc/arm-none-eabi/5.4.1/armv7e-m\libgcc.a(_arm_cmpsf2.o)
 .data          0x00000000        0x0 c:/program files (x86)/gnu tools arm embedded/5.4 2016q2/bin/../lib/gcc/arm-none-eabi/5.4.1/armv7e-m\libgcc.a(_arm_fixsfsi.o)
 .bss           0x00000000        0x0 c:/program files (x86)/gnu tools arm embedded/5.4 2016q2/bin/../lib/gcc/arm-none-eabi/5.4.1/armv7e-m\libgcc.a(_arm_fixsfsi.o)
 .text          0x00000000        0x0 c:/program files (x86)/gnu tools arm embedded/5.4 2016q2/bin/../lib/gcc/arm-none-eabi/5.4.1/../../../../arm-none-eabi/lib/armv7e-m\libg.a(lib_a-atoi.o)
 .data          0x00000000        0x0 c:/program files (x86)/gnu tools arm embedded/5.4 2016q2/bin/../lib/gcc/arm-none-eabi/5.4.1/../../../../arm-none-eabi/lib/armv7e-m\libg.a(lib_a-atoi.o)
 .bss           0x00000000        0x0 c:/program files (x86)/gnu tools arm embedded/5.4 2016q2/bin/../lib/gcc/arm-none-eabi/5.4.1/../../../../arm-none-eabi/lib/armv7e-m\libg.a(lib_a-atoi.o)
 .text._atoi_r  0x00000000        0x8 c:/program files (x86)/gnu tools arm embedded/5.4 2016q2/bin/../lib/gcc/arm-none-eabi/5.4.1/../../../../arm-none-eabi/lib/armv7e-m\libg.a(lib_a-atoi.o)
 .text          0x00000000        0x0 c:/program files (x86)/gnu tools arm embedded/5.4 2016q2/bin/../lib/gcc/arm-none-eabi/5.4.1/../../../../arm-none-eabi/lib/armv7e-m\libg.a(lib_a-ctype_.o)
 .data          0x00000000        0x0 c:/program files (x86)/gnu tools arm embedded/5.4 2016q2/bin/../lib/gcc/arm-none-eabi/5.4.1/../../../../arm-none-eabi/lib/armv7e-m\libg.a(lib_a-ctype_.o)
 .bss           0x00000000        0x0 c:/program files (x86)/gnu tools arm embedded/5.4 2016q2/bin/../lib/gcc/arm-none-eabi/5.4.1/../../../../arm-none-eabi/lib/armv7e-m\libg.a(lib_a-ctype_.o)
 .text          0x00000000        0x0 c:/program files (x86)/gnu tools arm embedded/5.4 2016q2/bin/../lib/gcc/arm-none-eabi/5.4.1/../../../../arm-none-eabi/lib/armv7e-m\libg.a(lib_a-strcpy.o)
 .data          0x00000000        0x0 c:/program files (x86)/gnu tools arm embedded/5.4 2016q2/bin/../lib/gcc/arm-none-eabi/5.4.1/../../../../arm-none-eabi/lib/armv7e-m\libg.a(lib_a-strcpy.o)
 .bss           0x00000000        0x0 c:/program files (x86)/gnu tools arm embedded/5.4 2016q2/bin/../lib/gcc/arm-none-eabi/5.4.1/../../../../arm-none-eabi/lib/armv7e-m\libg.a(lib_a-strcpy.o)
 .data          0x00000000        0x0 c:/program files (x86)/gnu tools arm embedded/5.4 2016q2/bin/../lib/gcc/arm-none-eabi/5.4.1/../../../../arm-none-eabi/lib/armv7e-m\libg.a(lib_a-strlen.o)
 .bss           0x00000000        0x0 c:/program files (x86)/gnu tools arm embedded/5.4 2016q2/bin/../lib/gcc/arm-none-eabi/5.4.1/../../../../arm-none-eabi/lib/armv7e-m\libg.a(lib_a-strlen.o)
 .text          0x00000000        0x0 c:/program files (x86)/gnu tools arm embedded/5.4 2016q2/bin/../lib/gcc/arm-none-eabi/5.4.1/../../../../arm-none-eabi/lib/armv7e-m\libg.a(lib_a-strncmp.o)
 .data          0x00000000        0x0 c:/program files (x86)/gnu tools arm embedded/5.4 2016q2/bin/../lib/gcc/arm-none-eabi/5.4.1/../../../../arm-none-eabi/lib/armv7e-m\libg.a(lib_a-strncmp.o)
 .bss           0x00000000        0x0 c:/program files (x86)/gnu tools arm embedded/5.4 2016q2/bin/../lib/gcc/arm-none-eabi/5.4.1/../../../../arm-none-eabi/lib/armv7e-m\libg.a(lib_a-strncmp.o)
 .text          0x00000000        0x0 c:/program files (x86)/gnu tools arm embedded/5.4 2016q2/bin/../lib/gcc/arm-none-eabi/5.4.1/../../../../arm-none-eabi/lib/armv7e-m\libg.a(lib_a-strtol.o)
 .data          0x00000000        0x0 c:/program files (x86)/gnu tools arm embedded/5.4 2016q2/bin/../lib/gcc/arm-none-eabi/5.4.1/../../../../arm-none-eabi/lib/armv7e-m\libg.a(lib_a-strtol.o)
 .bss           0x00000000        0x0 c:/program files (x86)/gnu tools arm embedded/5.4 2016q2/bin/../lib/gcc/arm-none-eabi/5.4.1/../../../../arm-none-eabi/lib/armv7e-m\libg.a(lib_a-strtol.o)

Memory Configuration

Name             Origin             Length             Attributes
rom              0x08000000         0x00100000         xr
ram              0x20000000         0x00020000         xrw
ram1             0x10000000         0x00010000         xrw
*default*        0x00000000         0xffffffff

Linker script and memory map

                0x20020000                _eram = 0x20020000

.text           0x08000000     0x44a9
 *(.isr_vector)
 .isr_vector    0x08000000      0x188 ..\obj\startup_stm32f4xx.o
                0x08000000                g_pfnVectors
 *(.text*)
 .text.UI_ERR_put
                0x08000188       0xc0 ..\obj\UI.o
                0x08000188                UI_ERR_put
 .text.UI_CH_rp
                0x08000248       0x40 ..\obj\UI.o
                0x08000248                UI_CH_rp
 .text.UI_CH_rm
                0x08000288       0x48 ..\obj\UI.o
                0x08000288                UI_CH_rm
 .text.main     0x080002d0      0x19c ..\obj\UI.o
                0x080002d0                main
 .text.USART_Init
                0x0800046c      0x174 ..\obj\stm32f4xx_usart.o
                0x0800046c                USART_Init
 .text.USART_Cmd
                0x080005e0       0x40 ..\obj\stm32f4xx_usart.o
                0x080005e0                USART_Cmd
 .text.USART_SendData
                0x08000620       0x24 ..\obj\stm32f4xx_usart.o
                0x08000620                USART_SendData
 .text.USART_ITConfig
                0x08000644       0x90 ..\obj\stm32f4xx_usart.o
                0x08000644                USART_ITConfig
 .text.USART_GetFlagStatus
                0x080006d4       0x38 ..\obj\stm32f4xx_usart.o
                0x080006d4                USART_GetFlagStatus
 .text.USART_GetITStatus
                0x0800070c       0xb4 ..\obj\stm32f4xx_usart.o
                0x0800070c                USART_GetITStatus
 .text.USART_ClearITPendingBit
                0x080007c0       0x38 ..\obj\stm32f4xx_usart.o
                0x080007c0                USART_ClearITPendingBit
 .text.Default_Reset_Handler
                0x080007f8       0x5c ..\obj\startup_stm32f4xx.o
                0x080007f8                Default_Reset_Handler
                0x080007f8                Reset_Handler
 .text.Default_Handler
                0x08000854        0x8 ..\obj\startup_stm32f4xx.o
                0x08000854                RTC_Alarm_IRQHandler
                0x08000854                HASH_RNG_IRQHandler
                0x08000854                EXTI2_IRQHandler
                0x08000854                TIM8_CC_IRQHandler
                0x08000854                DebugMon_Handler
                0x08000854                TIM1_CC_IRQHandler
                0x08000854                HardFault_Handler
                0x08000854                DMA1_Stream5_IRQHandler
                0x08000854                SysTick_Handler
                0x08000854                PVD_IRQHandler
                0x08000854                SDIO_IRQHandler
                0x08000854                TAMP_STAMP_IRQHandler
                0x08000854                PendSV_Handler
                0x08000854                NMI_Handler
                0x08000854                CAN2_RX1_IRQHandler
                0x08000854                EXTI3_IRQHandler
                0x08000854                TIM8_TRG_COM_TIM14_IRQHandler
                0x08000854                TIM1_UP_TIM10_IRQHandler
                0x08000854                TIM8_UP_TIM13_IRQHandler
                0x08000854                I2C3_ER_IRQHandler
                0x08000854                EXTI0_IRQHandler
                0x08000854                I2C2_EV_IRQHandler
                0x08000854                DMA1_Stream2_IRQHandler
                0x08000854                CAN1_RX0_IRQHandler
                0x08000854                FPU_IRQHandler
                0x08000854                OTG_HS_WKUP_IRQHandler
                0x08000854                UsageFault_Handler
                0x08000854                CAN2_SCE_IRQHandler
                0x08000854                DMA2_Stream2_IRQHandler
                0x08000854                SPI1_IRQHandler
                0x08000854                TIM6_DAC_IRQHandler
                0x08000854                TIM1_BRK_TIM9_IRQHandler
                0x08000854                DCMI_IRQHandler
                0x08000854                CAN2_RX0_IRQHandler
                0x08000854                DMA2_Stream3_IRQHandler
                0x08000854                USART6_IRQHandler
                0x08000854                USART3_IRQHandler
                0x08000854                CRYP_IRQHandler
                0x08000854                CAN1_RX1_IRQHandler
                0x08000854                UART5_IRQHandler
                0x08000854                DMA2_Stream0_IRQHandler
                0x08000854                TIM4_IRQHandler
                0x08000854                I2C1_EV_IRQHandler
                0x08000854                DMA1_Stream6_IRQHandler
                0x08000854                DMA1_Stream1_IRQHandler
                0x08000854                UART4_IRQHandler
                0x08000854                TIM3_IRQHandler
                0x08000854                RCC_IRQHandler
                0x08000854                TIM8_BRK_TIM12_IRQHandler
                0x08000854                EXTI15_10_IRQHandler
                0x08000854                ADC_IRQHandler
                0x08000854                DMA1_Stream7_IRQHandler
                0x08000854                TIM7_IRQHandler
                0x08000854                CAN2_TX_IRQHandler
                0x08000854                TIM5_IRQHandler
                0x08000854                DMA2_Stream7_IRQHandler
                0x08000854                I2C3_EV_IRQHandler
                0x08000854                EXTI9_5_IRQHandler
                0x08000854                RTC_WKUP_IRQHandler
                0x08000854                ETH_WKUP_IRQHandler
                0x08000854                SPI2_IRQHandler
                0x08000854                OTG_HS_EP1_IN_IRQHandler
                0x08000854                MemManage_Handler
                0x08000854                DMA1_Stream0_IRQHandler
                0x08000854                CAN1_TX_IRQHandler
                0x08000854                SVC_Handler
                0x08000854                EXTI4_IRQHandler
                0x08000854                FSMC_IRQHandler
                0x08000854                ETH_IRQHandler
                0x08000854                OTG_HS_EP1_OUT_IRQHandler
                0x08000854                WWDG_IRQHandler
                0x08000854                OTG_FS_WKUP_IRQHandler
                0x08000854                TIM1_TRG_COM_TIM11_IRQHandler
                0x08000854                OTG_HS_IRQHandler
                0x08000854                EXTI1_IRQHandler
                0x08000854                I2C2_ER_IRQHandler
                0x08000854                DMA2_Stream1_IRQHandler
                0x08000854                CAN1_SCE_IRQHandler
                0x08000854                FLASH_IRQHandler
                0x08000854                DMA2_Stream4_IRQHandler
                0x08000854                BusFault_Handler
                0x08000854                USART1_IRQHandler
                0x08000854                OTG_FS_IRQHandler
                0x08000854                SPI3_IRQHandler
                0x08000854                DMA1_Stream4_IRQHandler
                0x08000854                I2C1_ER_IRQHandler
                0x08000854                DMA2_Stream6_IRQHandler
                0x08000854                DMA1_Stream3_IRQHandler
 .text.LL_STRING_check
                0x0800085c       0x7c ..\obj\LL.o
                0x0800085c                LL_STRING_check
 .text.LL_kstoki
                0x080008d8      0x160 ..\obj\LL.o
                0x080008d8                LL_kstoki
 .text.LL_STRING_param
                0x08000a38       0x38 ..\obj\LL.o
                0x08000a38                LL_STRING_param
 .text.LL_FIG_init
                0x08000a70      0x2e4 ..\obj\LL.o
                0x08000a70                LL_FIG_init
 .text.LL_exe   0x08000d54      0x2c8 ..\obj\LL.o
                0x08000d54                LL_exe
 .text.RCC_GetClocksFreq
                0x0800101c      0x154 ..\obj\stm32f4xx_rcc.o
                0x0800101c                RCC_GetClocksFreq
 .text.RCC_AHB1PeriphClockCmd
                0x08001170       0x3c ..\obj\stm32f4xx_rcc.o
                0x08001170                RCC_AHB1PeriphClockCmd
 .text.RCC_APB1PeriphClockCmd
                0x080011ac       0x3c ..\obj\stm32f4xx_rcc.o
                0x080011ac                RCC_APB1PeriphClockCmd
 .text.RCC_APB2PeriphClockCmd
                0x080011e8       0x3c ..\obj\stm32f4xx_rcc.o
                0x080011e8                RCC_APB2PeriphClockCmd
 .text.GPIO_Init
                0x08001224      0x11c ..\obj\stm32f4xx_gpio.o
                0x08001224                GPIO_Init
 .text.GPIO_PinAFConfig
                0x08001340       0x90 ..\obj\stm32f4xx_gpio.o
                0x08001340                GPIO_PinAFConfig
 .text.SystemInit
                0x080013d0       0x5c ..\obj\system_stm32f4xx.o
                0x080013d0                SystemInit
 .text.SetSysClock
                0x0800142c       0xf4 ..\obj\system_stm32f4xx.o
 .text.DMA_DeInit
                0x08001520      0x1a4 ..\obj\stm32f4xx_dma.o
                0x08001520                DMA_DeInit
 .text.DMA_Init
                0x080016c4       0xac ..\obj\stm32f4xx_dma.o
                0x080016c4                DMA_Init
 .text.DMA_Cmd  0x08001770       0x38 ..\obj\stm32f4xx_dma.o
                0x08001770                DMA_Cmd
 .text.DMA_ITConfig
                0x080017a8       0x74 ..\obj\stm32f4xx_dma.o
                0x080017a8                DMA_ITConfig
 .text.DMA_GetITStatus
                0x0800181c       0xac ..\obj\stm32f4xx_dma.o
                0x0800181c                DMA_GetITStatus
 .text.DMA_ClearITPendingBit
                0x080018c8       0x5c ..\obj\stm32f4xx_dma.o
                0x080018c8                DMA_ClearITPendingBit
 .text.UB_VGA_Screen_Init
                0x08001924       0x80 ..\obj\stm32_ub_vga_screen.o
                0x08001924                UB_VGA_Screen_Init
 .text.UB_VGA_FillScreen
                0x080019a4       0x44 ..\obj\stm32_ub_vga_screen.o
                0x080019a4                UB_VGA_FillScreen
 .text.UB_VGA_SetPixel
                0x080019e8       0x4c ..\obj\stm32_ub_vga_screen.o
                0x080019e8                UB_VGA_SetPixel
 .text.P_VGA_InitIO
                0x08001a34       0xa8 ..\obj\stm32_ub_vga_screen.o
                0x08001a34                P_VGA_InitIO
 .text.P_VGA_InitTIM
                0x08001adc       0xcc ..\obj\stm32_ub_vga_screen.o
                0x08001adc                P_VGA_InitTIM
 .text.P_VGA_InitINT
                0x08001ba8       0x58 ..\obj\stm32_ub_vga_screen.o
                0x08001ba8                P_VGA_InitINT
 .text.P_VGA_InitDMA
                0x08001c00       0x90 ..\obj\stm32_ub_vga_screen.o
                0x08001c00                P_VGA_InitDMA
 .text.TIM2_IRQHandler
                0x08001c90       0xbc ..\obj\stm32_ub_vga_screen.o
                0x08001c90                TIM2_IRQHandler
 .text.DMA2_Stream5_IRQHandler
                0x08001d4c       0x4c ..\obj\stm32_ub_vga_screen.o
                0x08001d4c                DMA2_Stream5_IRQHandler
 .text.NVIC_Init
                0x08001d98       0xc0 ..\obj\misc.o
                0x08001d98                NVIC_Init
 .text.TIM_TimeBaseInit
                0x08001e58       0xd4 ..\obj\stm32f4xx_tim.o
                0x08001e58                TIM_TimeBaseInit
 .text.TIM_ARRPreloadConfig
                0x08001f2c       0x40 ..\obj\stm32f4xx_tim.o
                0x08001f2c                TIM_ARRPreloadConfig
 .text.TIM_Cmd  0x08001f6c       0x40 ..\obj\stm32f4xx_tim.o
                0x08001f6c                TIM_Cmd
 .text.TIM_OC3Init
                0x08001fac      0x10c ..\obj\stm32f4xx_tim.o
                0x08001fac                TIM_OC3Init
 .text.TIM_OC4Init
                0x080020b8       0xcc ..\obj\stm32f4xx_tim.o
                0x080020b8                TIM_OC4Init
 .text.TIM_OC3PreloadConfig
                0x08002184       0x38 ..\obj\stm32f4xx_tim.o
                0x08002184                TIM_OC3PreloadConfig
 .text.TIM_OC4PreloadConfig
                0x080021bc       0x3c ..\obj\stm32f4xx_tim.o
                0x080021bc                TIM_OC4PreloadConfig
 .text.TIM_ITConfig
                0x080021f8       0x48 ..\obj\stm32f4xx_tim.o
                0x080021f8                TIM_ITConfig
 .text.TIM_ClearITPendingBit
                0x08002240       0x20 ..\obj\stm32f4xx_tim.o
                0x08002240                TIM_ClearITPendingBit
 .text.TIM_DMACmd
                0x08002260       0x48 ..\obj\stm32f4xx_tim.o
                0x08002260                TIM_DMACmd
 .text.API_ERROR_inrange
                0x080022a8       0x64 ..\..\..\libvga_api.a(API_DRAW.o)
                0x080022a8                API_ERROR_inrange
 .text.API_DRAW_line
                0x0800230c       0x4c ..\..\..\libvga_api.a(API_DRAW.o)
                0x0800230c                API_DRAW_line
 .text.API_DRAW_rechthoek
                0x08002358       0x54 ..\..\..\libvga_api.a(API_DRAW.o)
                0x08002358                API_DRAW_rechthoek
 .text.API_DRAW_bitmap
                0x080023ac      0x360 ..\..\..\libvga_api.a(API_DRAW.o)
                0x080023ac                API_DRAW_bitmap
 .text.API_IO_init
                0x0800270c       0x1c ..\..\..\libvga_api.a(API_IO.o)
                0x0800270c                API_IO_init
 .text.API_IO_DELAY_ms
                0x08002728       0x18 ..\..\..\libvga_api.a(API_IO.o)
                0x08002728                API_IO_DELAY_ms
 .text.API_IO_UART_INT_init
                0x08002740        0xc ..\..\..\libvga_api.a(API_IO.o)
                0x08002740                API_IO_UART_INT_init
 .text.API_IO_UART_INT_gets
                0x0800274c       0x54 ..\..\..\libvga_api.a(API_IO.o)
                0x0800274c                API_IO_UART_INT_gets
 .text.API_IO_UART_putint
                0x080027a0       0x18 ..\..\..\libvga_api.a(API_IO.o)
                0x080027a0                API_IO_UART_putint
 .text.API_IO_UART_putnum
                0x080027b8       0x20 ..\..\..\libvga_api.a(API_IO.o)
                0x080027b8                API_IO_UART_putnum
 .text.API_IO_UART_puts
                0x080027d8       0x18 ..\..\..\libvga_api.a(API_IO.o)
                0x080027d8                API_IO_UART_puts
 .text.API_IO_bitmap
                0x080027f0      0x124 ..\..\..\libvga_api.a(API_IO.o)
                0x080027f0                API_IO_bitmap
 .text.API_IO_clearscherm
                0x08002914       0x1c ..\..\..\libvga_api.a(API_IO.o)
                0x08002914                API_IO_clearscherm
 .text.API_IO_line
                0x08002930      0x270 ..\..\..\libvga_api.a(API_IO.o)
                0x08002930                API_IO_line
 .text.API_IO_rechthoek
                0x08002ba0       0xb8 ..\..\..\libvga_api.a(API_IO.o)
                0x08002ba0                API_IO_rechthoek
 .text.DELAY_init
                0x08002c58      0x128 ..\..\..\libvga_api.a(delay.o)
                0x08002c58                DELAY_init
 .text.DELAY_ms
                0x08002d80       0x3c ..\..\..\libvga_api.a(delay.o)
                0x08002d80                DELAY_ms
 .text.UART_init
                0x08002dbc       0x94 ..\..\..\libvga_api.a(uart.o)
                0x08002dbc                UART_init
 .text.UART_putchar
                0x08002e50       0x34 ..\..\..\libvga_api.a(uart.o)
                0x08002e50                UART_putchar
 .text.UART_puts
                0x08002e84       0x38 ..\..\..\libvga_api.a(uart.o)
                0x08002e84                UART_puts
 .text.UART_INT_init
                0x08002ebc       0x28 ..\..\..\libvga_api.a(uart.o)
                0x08002ebc                UART_INT_init
 .text.USART2_IRQHandler
                0x08002ee4       0x8c ..\..\..\libvga_api.a(uart.o)
                0x08002ee4                USART2_IRQHandler
 .text.UART_putint
                0x08002f70       0x18 ..\..\..\libvga_api.a(uart.o)
                0x08002f70                UART_putint
 .text.UART_putnum
                0x08002f88       0xb4 ..\..\..\libvga_api.a(uart.o)
                0x08002f88                UART_putnum
 .text          0x0800303c      0x370 c:/program files (x86)/gnu tools arm embedded/5.4 2016q2/bin/../lib/gcc/arm-none-eabi/5.4.1/armv7e-m\libgcc.a(_arm_addsubdf3.o)
                0x0800303c                __aeabi_drsub
                0x08003044                __aeabi_dsub
                0x08003044                __subdf3
                0x08003048                __aeabi_dadd
                0x08003048                __adddf3
                0x080032c0                __floatunsidf
                0x080032c0                __aeabi_ui2d
                0x080032e0                __floatsidf
                0x080032e0                __aeabi_i2d
                0x08003304                __aeabi_f2d
                0x08003304                __extendsfdf2
                0x08003340                __floatundidf
                0x08003340                __aeabi_ul2d
                0x08003350                __floatdidf
                0x08003350                __aeabi_l2d
 .text          0x080033ac      0x424 c:/program files (x86)/gnu tools arm embedded/5.4 2016q2/bin/../lib/gcc/arm-none-eabi/5.4.1/armv7e-m\libgcc.a(_arm_muldivdf3.o)
                0x080033ac                __aeabi_dmul
                0x080033ac                __muldf3
                0x08003600                __divdf3
                0x08003600                __aeabi_ddiv
 .text          0x080037d0       0x40 c:/program files (x86)/gnu tools arm embedded/5.4 2016q2/bin/../lib/gcc/arm-none-eabi/5.4.1/armv7e-m\libgcc.a(_arm_fixunsdfsi.o)
                0x080037d0                __aeabi_d2uiz
                0x080037d0                __fixunsdfsi
 .text          0x08003810      0x21c c:/program files (x86)/gnu tools arm embedded/5.4 2016q2/bin/../lib/gcc/arm-none-eabi/5.4.1/armv7e-m\libgcc.a(_arm_addsubsf3.o)
                0x08003810                __aeabi_frsub
                0x08003818                __subsf3
                0x08003818                __aeabi_fsub
                0x0800381c                __aeabi_fadd
                0x0800381c                __addsf3
                0x0800397c                __aeabi_ui2f
                0x0800397c                __floatunsisf
                0x08003984                __aeabi_i2f
                0x08003984                __floatsisf
                0x080039a0                __aeabi_ul2f
                0x080039a0                __floatundisf
                0x080039b0                __aeabi_l2f
                0x080039b0                __floatdisf
 .text          0x08003a2c      0x2a0 c:/program files (x86)/gnu tools arm embedded/5.4 2016q2/bin/../lib/gcc/arm-none-eabi/5.4.1/armv7e-m\libgcc.a(_arm_muldivsf3.o)
                0x08003a2c                __mulsf3
                0x08003a2c                __aeabi_fmul
                0x08003b94                __aeabi_fdiv
                0x08003b94                __divsf3
 .text          0x08003ccc       0xec c:/program files (x86)/gnu tools arm embedded/5.4 2016q2/bin/../lib/gcc/arm-none-eabi/5.4.1/armv7e-m\libgcc.a(_arm_cmpsf2.o)
                0x08003ccc                __gesf2
                0x08003ccc                __gtsf2
                0x08003cd4                __lesf2
                0x08003cd4                __ltsf2
                0x08003cdc                __nesf2
                0x08003cdc                __eqsf2
                0x08003cdc                __cmpsf2
                0x08003d3c                __aeabi_cfrcmple
                0x08003d44                __aeabi_cfcmpeq
                0x08003d44                __aeabi_cfcmple
                0x08003d54                __aeabi_fcmpeq
                0x08003d68                __aeabi_fcmplt
                0x08003d7c                __aeabi_fcmple
                0x08003d90                __aeabi_fcmpge
                0x08003da4                __aeabi_fcmpgt
 .text          0x08003db8       0x4c c:/program files (x86)/gnu tools arm embedded/5.4 2016q2/bin/../lib/gcc/arm-none-eabi/5.4.1/armv7e-m\libgcc.a(_arm_fixsfsi.o)
                0x08003db8                __aeabi_f2iz
                0x08003db8                __fixsfsi
 .text.atoi     0x08003e04        0x8 c:/program files (x86)/gnu tools arm embedded/5.4 2016q2/bin/../lib/gcc/arm-none-eabi/5.4.1/../../../../arm-none-eabi/lib/armv7e-m\libg.a(lib_a-atoi.o)
                0x08003e04                atoi
 .text.strcpy   0x08003e0c       0xbc c:/program files (x86)/gnu tools arm embedded/5.4 2016q2/bin/../lib/gcc/arm-none-eabi/5.4.1/../../../../arm-none-eabi/lib/armv7e-m\libg.a(lib_a-strcpy.o)
                0x08003e0c                strcpy
 *fill*         0x08003ec8       0x38 
 .text          0x08003f00       0xdc c:/program files (x86)/gnu tools arm embedded/5.4 2016q2/bin/../lib/gcc/arm-none-eabi/5.4.1/../../../../arm-none-eabi/lib/armv7e-m\libg.a(lib_a-strlen.o)
                0x08003f00                strlen
 .text.strncmp  0x08003fdc       0xa0 c:/program files (x86)/gnu tools arm embedded/5.4 2016q2/bin/../lib/gcc/arm-none-eabi/5.4.1/../../../../arm-none-eabi/lib/armv7e-m\libg.a(lib_a-strncmp.o)
                0x08003fdc                strncmp
 .text._strtol_r
                0x0800407c      0x128 c:/program files (x86)/gnu tools arm embedded/5.4 2016q2/bin/../lib/gcc/arm-none-eabi/5.4.1/../../../../arm-none-eabi/lib/armv7e-m\libg.a(lib_a-strtol.o)
                0x0800407c                _strtol_r
 .text.strtol   0x080041a4       0x18 c:/program files (x86)/gnu tools arm embedded/5.4 2016q2/bin/../lib/gcc/arm-none-eabi/5.4.1/../../../../arm-none-eabi/lib/armv7e-m\libg.a(lib_a-strtol.o)
                0x080041a4                strtol
 *(.init)
 *(.fini)
 *crtbegin.o(.ctors)
 *crtbegin?.o(.ctors)
 *(EXCLUDE_FILE(*crtend.o *crtend?.o) .ctors)
 *(SORT(.ctors.*))
 *(.ctors)
 *crtbegin.o(.dtors)
 *crtbegin?.o(.dtors)
 *(EXCLUDE_FILE(*crtend.o *crtend?.o) .dtors)
 *(SORT(.dtors.*))
 *(.dtors)
 *(.rodata*)
 .rodata        0x080041bc      0x11f ..\obj\UI.o
 *fill*         0x080042db        0x1 
 .rodata        0x080042dc       0xc9 ..\obj\LL.o
 *fill*         0x080043a5        0x3 
 .rodata._ctype_
                0x080043a8      0x101 c:/program files (x86)/gnu tools arm embedded/5.4 2016q2/bin/../lib/gcc/arm-none-eabi/5.4.1/../../../../arm-none-eabi/lib/armv7e-m\libg.a(lib_a-ctype_.o)
                0x080043a8                _ctype_
 *(.eh_fram e*)

.glue_7         0x080044ac        0x0
 .glue_7        0x080044ac        0x0 linker stubs

.glue_7t        0x080044ac        0x0
 .glue_7t       0x080044ac        0x0 linker stubs

.vfp11_veneer   0x080044ac        0x0
 .vfp11_veneer  0x080044ac        0x0 linker stubs

.v4_bx          0x080044ac        0x0
 .v4_bx         0x080044ac        0x0 linker stubs

.iplt           0x080044ac        0x0
 .iplt          0x080044ac        0x0 ..\obj\UI.o

.rel.dyn        0x080044ac        0x0
 .rel.iplt      0x080044ac        0x0 ..\obj\UI.o

.ARM.extab
 *(.ARM.extab* .gnu.linkonce.armextab.*)
                0x080044ac                __exidx_start = .

.ARM.exidx
 *(.ARM.exidx* .gnu.linkonce.armexidx.*)
                0x080044ac                __exidx_end = .
                0x080044ac                __etext = .
                0x080044a9                _sidata = __etext

.data           0x20000000     0x2938 load address 0x080044a9
                0x20000000                __data_start__ = .
                0x20000000                _sdata = __data_start__
 *(vtable)
 *(.data*)
 .data          0x20000000       0x10 ..\obj\stm32f4xx_rcc.o
 .data          0x20000010     0x24e8 ..\..\..\libvga_api.a(API_DRAW.o)
                0x20000010                pijl_links
                0x20000478                pijl_rechts
                0x200008e0                pijl_omhoog
                0x20000d20                pijl_omlaag
                0x20001160                smiley_blij
                0x20001b2c                smiley_boos
 .data          0x200024f8       0x10 ..\..\..\libvga_api.a(uart.o)
 .data          0x20002508      0x42c ..\..\..\libvga_api.a(printf.o)
                0x20002508                r
                0x20002930                _impure_ptr
 .data.__ctype_ptr__
                0x20002934        0x4 c:/program files (x86)/gnu tools arm embedded/5.4 2016q2/bin/../lib/gcc/arm-none-eabi/5.4.1/../../../../arm-none-eabi/lib/armv7e-m\libg.a(lib_a-ctype_.o)
                0x20002934                __ctype_ptr__
                0x20002938                . = ALIGN (0x4)
                [!provide]                PROVIDE (__preinit_array_start, .)
 *(.preinit_array)
                [!provide]                PROVIDE (__preinit_array_end, .)
                0x20002938                . = ALIGN (0x4)
                [!provide]                PROVIDE (__init_array_start, .)
 *(SORT(.init_array.*))
 *(.init_array)
                [!provide]                PROVIDE (__init_array_end, .)
                0x20002938                . = ALIGN (0x4)
                [!provide]                PROVIDE (__fini_array_start, .)
 *(SORT(.fini_array.*))
 *(.fini_array)
                [!provide]                PROVIDE (__fini_array_end, .)
 *(.jcr*)
                0x20002938                . = ALIGN (0x4)
                0x20002938                __data_end__ = .
                0x20002938                _edata = __data_end__

.igot.plt       0x20002938        0x0 load address 0x08006de4
 .igot.plt      0x20002938        0x0 ..\obj\UI.o

.bss            0x20002938    0x12d74 load address 0x08006de4
                0x20002938                . = ALIGN (0x4)
                0x20002938                __bss_start__ = .
                0x20002938                _sbss = __bss_start__
 *(.bss*)
 .bss           0x20002938        0x4 ..\..\..\libvga_api.a(uart.o)
                0x20002938                charcounter
 *(COMMON)
 COMMON         0x2000293c    0x12cfc ..\obj\stm32_ub_vga_screen.o
                0x2000293c                VGA
                0x20002948                VGA_RAM1
 COMMON         0x20015638       0x10 ..\..\..\libvga_api.a(delay.o)
                0x20015638                G_CLK
                0x2001563c                D_S
                0x20015640                D_uS
                0x20015644                D_mS
 COMMON         0x20015648       0x64 ..\..\..\libvga_api.a(uart.o)
                0x20015648                string
                0x200156ac                . = ALIGN (0x4)
                0x200156ac                __bss_end__ = .
                0x200156ac                _ebss = __bss_end__

.heap           0x200156ac        0x0
                0x200156ac                __end__ = .
                0x200156ac                _end = __end__
                0x200156ac                end = __end__
 *(.heap*)
                0x200156ac                __HeapLimit = .

.co_stack       0x200156ac      0x804 load address 0x08019b58
                0x200156b0                . = ALIGN (0x8)
 *fill*         0x200156ac        0x4 
 *(.co_stack .co_stack.*)
 .co_stack      0x200156b0      0x800 ..\obj\startup_stm32f4xx.o
                0x200156b0                pulStack
                0x20020000                __StackTop = (ORIGIN (ram) + LENGTH (ram))
                0x2001f7fc                __StackLimit = (__StackTop - SIZEOF (.co_stack))
                [!provide]                PROVIDE (__stack, __StackTop)
                0x00000001                ASSERT ((__StackLimit >= __HeapLimit), region ram  overflowed with stack)
LOAD ..\obj\UI.o
LOAD ..\obj\stm32f4xx_usart.o
LOAD ..\obj\startup_stm32f4xx.o
LOAD ..\obj\LL.o
LOAD ..\obj\stm32f4xx_rcc.o
LOAD ..\obj\stm32f4xx_gpio.o
LOAD ..\obj\system_stm32f4xx.o
LOAD ..\obj\syscalls.o
LOAD ..\obj\stm32f4xx_dma.o
LOAD ..\obj\stm32_ub_vga_screen.o
LOAD ..\obj\misc.o
LOAD ..\obj\stm32f4xx_tim.o
LOAD ..\..\..\libvga_api.a
LOAD c:/program files (x86)/gnu tools arm embedded/5.4 2016q2/bin/../lib/gcc/arm-none-eabi/5.4.1/../../../../arm-none-eabi/lib/armv7e-m\libm.a
START GROUP
LOAD c:/program files (x86)/gnu tools arm embedded/5.4 2016q2/bin/../lib/gcc/arm-none-eabi/5.4.1/armv7e-m\libgcc.a
LOAD c:/program files (x86)/gnu tools arm embedded/5.4 2016q2/bin/../lib/gcc/arm-none-eabi/5.4.1/../../../../arm-none-eabi/lib/armv7e-m\libg.a
LOAD c:/program files (x86)/gnu tools arm embedded/5.4 2016q2/bin/../lib/gcc/arm-none-eabi/5.4.1/../../../../arm-none-eabi/lib/armv7e-m\libc.a
END GROUP
OUTPUT(VGA_Core.elf elf32-littlearm)

.debug_info     0x00000000     0x82e7
 .debug_info    0x00000000      0x315 ..\obj\UI.o
 .debug_info    0x00000315      0x9ca ..\obj\stm32f4xx_usart.o
 .debug_info    0x00000cdf       0xf2 ..\obj\startup_stm32f4xx.o
 .debug_info    0x00000dd1      0x3df ..\obj\LL.o
 .debug_info    0x000011b0      0xc63 ..\obj\stm32f4xx_rcc.o
 .debug_info    0x00001e13      0x61a ..\obj\stm32f4xx_gpio.o
 .debug_info    0x0000242d      0x5c5 ..\obj\system_stm32f4xx.o
 .debug_info    0x000029f2      0x741 ..\obj\stm32f4xx_dma.o
 .debug_info    0x00003133      0xad9 ..\obj\stm32_ub_vga_screen.o
 .debug_info    0x00003c0c      0x556 ..\obj\misc.o
 .debug_info    0x00004162     0x1c69 ..\obj\stm32f4xx_tim.o
 .debug_info    0x00005dcb      0x478 ..\..\..\libvga_api.a(API_DRAW.o)
 .debug_info    0x00006243      0x5d9 ..\..\..\libvga_api.a(API_IO.o)
 .debug_info    0x0000681c      0x2a6 ..\..\..\libvga_api.a(delay.o)
 .debug_info    0x00006ac2      0x9e8 ..\..\..\libvga_api.a(uart.o)
 .debug_info    0x000074aa      0xe3d ..\..\..\libvga_api.a(printf.o)

.debug_abbrev   0x00000000     0x171b
 .debug_abbrev  0x00000000      0x11d ..\obj\UI.o
 .debug_abbrev  0x0000011d      0x157 ..\obj\stm32f4xx_usart.o
 .debug_abbrev  0x00000274       0xb0 ..\obj\startup_stm32f4xx.o
 .debug_abbrev  0x00000324      0x130 ..\obj\LL.o
 .debug_abbrev  0x00000454      0x1e5 ..\obj\stm32f4xx_rcc.o
 .debug_abbrev  0x00000639      0x1a7 ..\obj\stm32f4xx_gpio.o
 .debug_abbrev  0x000007e0      0x138 ..\obj\system_stm32f4xx.o
 .debug_abbrev  0x00000918      0x157 ..\obj\stm32f4xx_dma.o
 .debug_abbrev  0x00000a6f      0x1d0 ..\obj\stm32_ub_vga_screen.o
 .debug_abbrev  0x00000c3f      0x147 ..\obj\misc.o
 .debug_abbrev  0x00000d86      0x189 ..\obj\stm32f4xx_tim.o
 .debug_abbrev  0x00000f0f      0x13d ..\..\..\libvga_api.a(API_DRAW.o)
 .debug_abbrev  0x0000104c      0x187 ..\..\..\libvga_api.a(API_IO.o)
 .debug_abbrev  0x000011d3      0x100 ..\..\..\libvga_api.a(delay.o)
 .debug_abbrev  0x000012d3      0x1e6 ..\..\..\libvga_api.a(uart.o)
 .debug_abbrev  0x000014b9      0x262 ..\..\..\libvga_api.a(printf.o)

.debug_aranges  0x00000000      0xa40
 .debug_aranges
                0x00000000       0x38 ..\obj\UI.o
 .debug_aranges
                0x00000038      0x100 ..\obj\stm32f4xx_usart.o
 .debug_aranges
                0x00000138       0x28 ..\obj\startup_stm32f4xx.o
 .debug_aranges
                0x00000160       0x48 ..\obj\LL.o
 .debug_aranges
                0x000001a8      0x178 ..\obj\stm32f4xx_rcc.o
 .debug_aranges
                0x00000320       0x88 ..\obj\stm32f4xx_gpio.o
 .debug_aranges
                0x000003a8       0x30 ..\obj\system_stm32f4xx.o
 .debug_aranges
                0x000003d8       0xb0 ..\obj\stm32f4xx_dma.o
 .debug_aranges
                0x00000488       0x60 ..\obj\stm32_ub_vga_screen.o
 .debug_aranges
                0x000004e8       0x40 ..\obj\misc.o
 .debug_aranges
                0x00000528      0x2f8 ..\obj\stm32f4xx_tim.o
 .debug_aranges
                0x00000820       0x40 ..\..\..\libvga_api.a(API_DRAW.o)
 .debug_aranges
                0x00000860       0xa0 ..\..\..\libvga_api.a(API_IO.o)
 .debug_aranges
                0x00000900       0x38 ..\..\..\libvga_api.a(delay.o)
 .debug_aranges
                0x00000938       0x68 ..\..\..\libvga_api.a(uart.o)
 .debug_aranges
                0x000009a0       0xa0 ..\..\..\libvga_api.a(printf.o)

.debug_ranges   0x00000000      0x940
 .debug_ranges  0x00000000       0x28 ..\obj\UI.o
 .debug_ranges  0x00000028       0xf0 ..\obj\stm32f4xx_usart.o
 .debug_ranges  0x00000118       0x18 ..\obj\startup_stm32f4xx.o
 .debug_ranges  0x00000130       0x38 ..\obj\LL.o
 .debug_ranges  0x00000168      0x168 ..\obj\stm32f4xx_rcc.o
 .debug_ranges  0x000002d0       0x78 ..\obj\stm32f4xx_gpio.o
 .debug_ranges  0x00000348       0x20 ..\obj\system_stm32f4xx.o
 .debug_ranges  0x00000368       0xa0 ..\obj\stm32f4xx_dma.o
 .debug_ranges  0x00000408       0x50 ..\obj\stm32_ub_vga_screen.o
 .debug_ranges  0x00000458       0x30 ..\obj\misc.o
 .debug_ranges  0x00000488      0x2e8 ..\obj\stm32f4xx_tim.o
 .debug_ranges  0x00000770       0x30 ..\..\..\libvga_api.a(API_DRAW.o)
 .debug_ranges  0x000007a0       0x90 ..\..\..\libvga_api.a(API_IO.o)
 .debug_ranges  0x00000830       0x28 ..\..\..\libvga_api.a(delay.o)
 .debug_ranges  0x00000858       0x58 ..\..\..\libvga_api.a(uart.o)
 .debug_ranges  0x000008b0       0x90 ..\..\..\libvga_api.a(printf.o)

.debug_line     0x00000000     0x4671
 .debug_line    0x00000000      0x186 ..\obj\UI.o
 .debug_line    0x00000186      0x599 ..\obj\stm32f4xx_usart.o
 .debug_line    0x0000071f       0xd1 ..\obj\startup_stm32f4xx.o
 .debug_line    0x000007f0      0x29c ..\obj\LL.o
 .debug_line    0x00000a8c      0x685 ..\obj\stm32f4xx_rcc.o
 .debug_line    0x00001111      0x440 ..\obj\stm32f4xx_gpio.o
 .debug_line    0x00001551      0x262 ..\obj\system_stm32f4xx.o
 .debug_line    0x000017b3      0x50a ..\obj\stm32f4xx_dma.o
 .debug_line    0x00001cbd      0x472 ..\obj\stm32_ub_vga_screen.o
 .debug_line    0x0000212f      0x31e ..\obj\misc.o
 .debug_line    0x0000244d      0xba1 ..\obj\stm32f4xx_tim.o
 .debug_line    0x00002fee      0x4c5 ..\..\..\libvga_api.a(API_DRAW.o)
 .debug_line    0x000034b3      0x578 ..\..\..\libvga_api.a(API_IO.o)
 .debug_line    0x00003a2b      0x351 ..\..\..\libvga_api.a(delay.o)
 .debug_line    0x00003d7c      0x546 ..\..\..\libvga_api.a(uart.o)
 .debug_line    0x000042c2      0x3af ..\..\..\libvga_api.a(printf.o)

.debug_str      0x00000000     0x3646
 .debug_str     0x00000000      0x28a ..\obj\UI.o
                                0x2d7 (size before relaxing)
 .debug_str     0x0000028a      0x56f ..\obj\stm32f4xx_usart.o
                                0x6bf (size before relaxing)
 .debug_str     0x000007f9       0xe0 ..\obj\startup_stm32f4xx.o
                                0x177 (size before relaxing)
 .debug_str     0x000008d9       0xee ..\obj\LL.o
                                0x334 (size before relaxing)
 .debug_str     0x000009c7      0x60d ..\obj\stm32f4xx_rcc.o
                                0x880 (size before relaxing)
 .debug_str     0x00000fd4      0x358 ..\obj\stm32f4xx_gpio.o
                                0x4d3 (size before relaxing)
 .debug_str     0x0000132c      0x148 ..\obj\system_stm32f4xx.o
                                0x3da (size before relaxing)
 .debug_str     0x00001474      0x3c1 ..\obj\stm32f4xx_dma.o
                                0x572 (size before relaxing)
 .debug_str     0x00001835      0x899 ..\obj\stm32_ub_vga_screen.o
                                0xd0d (size before relaxing)
 .debug_str     0x000020ce      0x191 ..\obj\misc.o
                                0x3fe (size before relaxing)
 .debug_str     0x0000225f      0xa2e ..\obj\stm32f4xx_tim.o
                                0xe00 (size before relaxing)
 .debug_str     0x00002c8d      0x195 ..\..\..\libvga_api.a(API_DRAW.o)
                                0x3b7 (size before relaxing)
 .debug_str     0x00002e22      0x1d0 ..\..\..\libvga_api.a(API_IO.o)
                                0x460 (size before relaxing)
 .debug_str     0x00002ff2       0x8f ..\..\..\libvga_api.a(delay.o)
                                0x325 (size before relaxing)
 .debug_str     0x00003081      0x100 ..\..\..\libvga_api.a(uart.o)
                                0xba2 (size before relaxing)
 .debug_str     0x00003181      0x4c5 ..\..\..\libvga_api.a(printf.o)
                                0x6e0 (size before relaxing)

.comment        0x00000000       0x6e
 .comment       0x00000000       0x6e ..\obj\UI.o
                                 0x6f (size before relaxing)
 .comment       0x0000006e       0x6f ..\obj\stm32f4xx_usart.o
 .comment       0x0000006e       0x6f ..\obj\startup_stm32f4xx.o
 .comment       0x0000006e       0x6f ..\obj\LL.o
 .comment       0x0000006e       0x6f ..\obj\stm32f4xx_rcc.o
 .comment       0x0000006e       0x6f ..\obj\stm32f4xx_gpio.o
 .comment       0x0000006e       0x6f ..\obj\system_stm32f4xx.o
 .comment       0x0000006e       0x6f ..\obj\stm32f4xx_dma.o
 .comment       0x0000006e       0x6f ..\obj\stm32_ub_vga_screen.o
 .comment       0x0000006e       0x6f ..\obj\misc.o
 .comment       0x0000006e       0x6f ..\obj\stm32f4xx_tim.o
 .comment       0x0000006e       0x6f ..\..\..\libvga_api.a(API_DRAW.o)
 .comment       0x0000006e       0x6f ..\..\..\libvga_api.a(API_IO.o)
 .comment       0x0000006e       0x6f ..\..\..\libvga_api.a(delay.o)
 .comment       0x0000006e       0x6f ..\..\..\libvga_api.a(uart.o)
 .comment       0x0000006e       0x6f ..\..\..\libvga_api.a(printf.o)

.ARM.attributes
                0x00000000       0x31
 .ARM.attributes
                0x00000000       0x33 ..\obj\UI.o
 .ARM.attributes
                0x00000033       0x33 ..\obj\stm32f4xx_usart.o
 .ARM.attributes
                0x00000066       0x33 ..\obj\startup_stm32f4xx.o
 .ARM.attributes
                0x00000099       0x33 ..\obj\LL.o
 .ARM.attributes
                0x000000cc       0x33 ..\obj\stm32f4xx_rcc.o
 .ARM.attributes
                0x000000ff       0x33 ..\obj\stm32f4xx_gpio.o
 .ARM.attributes
                0x00000132       0x33 ..\obj\system_stm32f4xx.o
 .ARM.attributes
                0x00000165       0x33 ..\obj\stm32f4xx_dma.o
 .ARM.attributes
                0x00000198       0x33 ..\obj\stm32_ub_vga_screen.o
 .ARM.attributes
                0x000001cb       0x33 ..\obj\misc.o
 .ARM.attributes
                0x000001fe       0x33 ..\obj\stm32f4xx_tim.o
 .ARM.attributes
                0x00000231       0x33 ..\..\..\libvga_api.a(API_DRAW.o)
 .ARM.attributes
                0x00000264       0x33 ..\..\..\libvga_api.a(API_IO.o)
 .ARM.attributes
                0x00000297       0x33 ..\..\..\libvga_api.a(delay.o)
 .ARM.attributes
                0x000002ca       0x33 ..\..\..\libvga_api.a(uart.o)
 .ARM.attributes
                0x000002fd       0x33 ..\..\..\libvga_api.a(printf.o)
 .ARM.attributes
                0x00000330       0x1e c:/program files (x86)/gnu tools arm embedded/5.4 2016q2/bin/../lib/gcc/arm-none-eabi/5.4.1/armv7e-m\libgcc.a(_arm_addsubdf3.o)
 .ARM.attributes
                0x0000034e       0x1e c:/program files (x86)/gnu tools arm embedded/5.4 2016q2/bin/../lib/gcc/arm-none-eabi/5.4.1/armv7e-m\libgcc.a(_arm_muldivdf3.o)
 .ARM.attributes
                0x0000036c       0x1e c:/program files (x86)/gnu tools arm embedded/5.4 2016q2/bin/../lib/gcc/arm-none-eabi/5.4.1/armv7e-m\libgcc.a(_arm_fixunsdfsi.o)
 .ARM.attributes
                0x0000038a       0x1e c:/program files (x86)/gnu tools arm embedded/5.4 2016q2/bin/../lib/gcc/arm-none-eabi/5.4.1/armv7e-m\libgcc.a(_arm_addsubsf3.o)
 .ARM.attributes
                0x000003a8       0x1e c:/program files (x86)/gnu tools arm embedded/5.4 2016q2/bin/../lib/gcc/arm-none-eabi/5.4.1/armv7e-m\libgcc.a(_arm_muldivsf3.o)
 .ARM.attributes
                0x000003c6       0x1e c:/program files (x86)/gnu tools arm embedded/5.4 2016q2/bin/../lib/gcc/arm-none-eabi/5.4.1/armv7e-m\libgcc.a(_arm_cmpsf2.o)
 .ARM.attributes
                0x000003e4       0x1e c:/program files (x86)/gnu tools arm embedded/5.4 2016q2/bin/../lib/gcc/arm-none-eabi/5.4.1/armv7e-m\libgcc.a(_arm_fixsfsi.o)
 .ARM.attributes
                0x00000402       0x2e c:/program files (x86)/gnu tools arm embedded/5.4 2016q2/bin/../lib/gcc/arm-none-eabi/5.4.1/../../../../arm-none-eabi/lib/armv7e-m\libg.a(lib_a-atoi.o)
 .ARM.attributes
                0x00000430       0x2e c:/program files (x86)/gnu tools arm embedded/5.4 2016q2/bin/../lib/gcc/arm-none-eabi/5.4.1/../../../../arm-none-eabi/lib/armv7e-m\libg.a(lib_a-ctype_.o)
 .ARM.attributes
                0x0000045e       0x2e c:/program files (x86)/gnu tools arm embedded/5.4 2016q2/bin/../lib/gcc/arm-none-eabi/5.4.1/../../../../arm-none-eabi/lib/armv7e-m\libg.a(lib_a-strcpy.o)
 .ARM.attributes
                0x0000048c       0x1c c:/program files (x86)/gnu tools arm embedded/5.4 2016q2/bin/../lib/gcc/arm-none-eabi/5.4.1/../../../../arm-none-eabi/lib/armv7e-m\libg.a(lib_a-strlen.o)
 .ARM.attributes
                0x000004a8       0x2e c:/program files (x86)/gnu tools arm embedded/5.4 2016q2/bin/../lib/gcc/arm-none-eabi/5.4.1/../../../../arm-none-eabi/lib/armv7e-m\libg.a(lib_a-strncmp.o)
 .ARM.attributes
                0x000004d6       0x2e c:/program files (x86)/gnu tools arm embedded/5.4 2016q2/bin/../lib/gcc/arm-none-eabi/5.4.1/../../../../arm-none-eabi/lib/armv7e-m\libg.a(lib_a-strtol.o)

.debug_frame    0x00000000     0x2cd0
 .debug_frame   0x00000000       0xa4 ..\obj\UI.o
 .debug_frame   0x000000a4      0x490 ..\obj\stm32f4xx_usart.o
 .debug_frame   0x00000534       0x4c ..\obj\startup_stm32f4xx.o
 .debug_frame   0x00000580       0xfc ..\obj\LL.o
 .debug_frame   0x0000067c      0x6d4 ..\obj\stm32f4xx_rcc.o
 .debug_frame   0x00000d50      0x23c ..\obj\stm32f4xx_gpio.o
 .debug_frame   0x00000f8c       0x7c ..\obj\system_stm32f4xx.o
 .debug_frame   0x00001008      0x308 ..\obj\stm32f4xx_dma.o
 .debug_frame   0x00001310      0x148 ..\obj\stm32_ub_vga_screen.o
 .debug_frame   0x00001458       0xd8 ..\obj\misc.o
 .debug_frame   0x00001530      0xe54 ..\obj\stm32f4xx_tim.o
 .debug_frame   0x00002384       0xcc ..\..\..\libvga_api.a(API_DRAW.o)
 .debug_frame   0x00002450      0x264 ..\..\..\libvga_api.a(API_IO.o)
 .debug_frame   0x000026b4       0xb0 ..\..\..\libvga_api.a(delay.o)
 .debug_frame   0x00002764      0x198 ..\..\..\libvga_api.a(uart.o)
 .debug_frame   0x000028fc      0x2dc ..\..\..\libvga_api.a(printf.o)
 .debug_frame   0x00002bd8       0x30 c:/program files (x86)/gnu tools arm embedded/5.4 2016q2/bin/../lib/gcc/arm-none-eabi/5.4.1/../../../../arm-none-eabi/lib/armv7e-m\libg.a(lib_a-atoi.o)
 .debug_frame   0x00002c08       0x20 c:/program files (x86)/gnu tools arm embedded/5.4 2016q2/bin/../lib/gcc/arm-none-eabi/5.4.1/../../../../arm-none-eabi/lib/armv7e-m\libg.a(lib_a-strcpy.o)
 .debug_frame   0x00002c28       0x54 c:/program files (x86)/gnu tools arm embedded/5.4 2016q2/bin/../lib/gcc/arm-none-eabi/5.4.1/../../../../arm-none-eabi/lib/armv7e-m\libg.a(lib_a-strncmp.o)
 .debug_frame   0x00002c7c       0x54 c:/program files (x86)/gnu tools arm embedded/5.4 2016q2/bin/../lib/gcc/arm-none-eabi/5.4.1/../../../../arm-none-eabi/lib/armv7e-m\libg.a(lib_a-strtol.o)
